target datalayout = "e-m:e-p270:32:32-p271:32:32-p272:64:64-i64:64-i128:128-f80:128-n8:16:32:64-S128"
target triple = "x86_64-pc-linux-gnu"

%struct.PROV_SM2_CTX = type { ptr, ptr, %struct.PROV_DIGEST }
%struct.PROV_DIGEST = type { ptr, ptr, ptr }

@.str = private unnamed_addr constant [59 x i8] c"../openssl/providers/implementations/asymciphers/sm2_enc.c\00", align 1

; Function Attrs: nounwind uwtable
define internal ptr @sm2_newctx(ptr noundef %0) #0 {
  %2 = alloca ptr, align 8
  %3 = alloca ptr, align 8
  %4 = alloca ptr, align 8
  %5 = alloca i32, align 4
  store ptr %0, ptr %3, align 8, !tbaa !3
  call void @llvm.lifetime.start.p0(i64 8, ptr %4) #6
  %6 = call noalias ptr @CRYPTO_zalloc(i64 noundef 40, ptr noundef @.str, i32 noundef 51)
  store ptr %6, ptr %4, align 8, !tbaa !3
  %7 = load ptr, ptr %4, align 8, !tbaa !3
  %8 = icmp eq ptr %7, null
  br i1 %8, label %9, label %10

9:                                                ; preds = %1
  store ptr null, ptr %2, align 8
  store i32 1, ptr %5, align 4
  br label %16

10:                                               ; preds = %1
  %11 = load ptr, ptr %3, align 8, !tbaa !3
  %12 = call ptr @ossl_prov_ctx_get0_libctx(ptr noundef %11)
  %13 = load ptr, ptr %4, align 8, !tbaa !3
  %14 = getelementptr inbounds nuw %struct.PROV_SM2_CTX, ptr %13, i32 0, i32 0
  store ptr %12, ptr %14, align 8, !tbaa !7
  %15 = load ptr, ptr %4, align 8, !tbaa !3
  store ptr %15, ptr %2, align 8
  store i32 1, ptr %5, align 4
  br label %16

16:                                               ; preds = %10, %9
  call void @llvm.lifetime.end.p0(i64 8, ptr %4) #6
  %17 = load ptr, ptr %2, align 8
  ret ptr %17
}