; Function Attrs: nounwind uwtable
define internal noalias ptr @sm2_newctx(ptr noundef %0) #0 {
  %2 = tail call noalias ptr @CRYPTO_zalloc(i64 noundef 40, ptr noundef nonnull @.str, i32 noundef 51) #5
  %3 = icmp eq ptr %2, null
  br i1 %3, label %6, label %4

4:                                                ; preds = %1
  %5 = tail call ptr @ossl_prov_ctx_get0_libctx(ptr noundef %0) #5
  store ptr %5, ptr %2, align 8, !tbaa !3
  br label %6

6:                                                ; preds = %1, %4
  ret ptr %2
}